; Function Attrs: nounwind uwtable
define dso_local i64 @hashint8extended(ptr noundef readonly captures(none) %0) local_unnamed_addr #0 {
  %2 = getelementptr inbounds nuw i8, ptr %0, i64 32
  %3 = load i64, ptr %2, align 8
  %4 = lshr i64 %3, 32
  %.lobit = ashr i64 %3, 63
  %5 = xor i64 %.lobit, %4
  %6 = xor i64 %5, %3
  %7 = trunc i64 %6 to i32
  %8 = getelementptr inbounds nuw i8, ptr %0, i64 48
  %9 = load i64, ptr %8, align 8
  %10 = tail call i64 @hash_bytes_uint32_extended(i32 noundef %7, i64 noundef %9) #6
  ret i64 %10
}